; Function Attrs: mustprogress nofree norecurse nosync nounwind willreturn memory(readwrite, inaccessiblemem: none) uwtable
define noundef zeroext i1 @_ZN5draco23PointCloudKdTreeDecoder18DecodeGeometryDataEv(ptr nocapture noundef nonnull readonly align 8 dereferenceable(88) %0) unnamed_addr #3 align 2 {
  %2 = getelementptr inbounds i8, ptr %0, i64 64
  %3 = load ptr, ptr %2, align 8
  %4 = getelementptr inbounds i8, ptr %3, i64 8
  %5 = load i64, ptr %4, align 8
  %6 = getelementptr inbounds i8, ptr %3, i64 16
  %7 = load i64, ptr %6, align 8
  %8 = add i64 %7, 4
  %.not = icmp slt i64 %5, %8
  br i1 %.not, label %_ZN5draco13DecoderBuffer6DecodeIiEEbPT_.exit.thread, label %_ZN5draco13DecoderBuffer6DecodeIiEEbPT_.exit

_ZN5draco13DecoderBuffer6DecodeIiEEbPT_.exit:     ; preds = %1
  %9 = load ptr, ptr %3, align 8
  %10 = getelementptr inbounds i8, ptr %9, i64 %7
  %11 = load i32, ptr %10, align 1
  store i64 %8, ptr %6, align 8
  %12 = icmp slt i32 %11, 0
  br i1 %12, label %_ZN5draco13DecoderBuffer6DecodeIiEEbPT_.exit.thread, label %13

13:                                               ; preds = %_ZN5draco13DecoderBuffer6DecodeIiEEbPT_.exit
  %14 = getelementptr inbounds i8, ptr %0, i64 8
  %15 = load ptr, ptr %14, align 8
  %16 = getelementptr inbounds i8, ptr %15, i64 160
  store i32 %11, ptr %16, align 8
  br label %_ZN5draco13DecoderBuffer6DecodeIiEEbPT_.exit.thread

_ZN5draco13DecoderBuffer6DecodeIiEEbPT_.exit.thread: ; preds = %1, %_ZN5draco13DecoderBuffer6DecodeIiEEbPT_.exit, %13
  %.0 = phi i1 [ true, %13 ], [ false, %_ZN5draco13DecoderBuffer6DecodeIiEEbPT_.exit ], [ false, %1 ]
  ret i1 %.0
}